target datalayout = "e-m:e-p270:32:32-p271:32:32-p272:64:64-i64:64-i128:128-f80:128-n8:16:32:64-S128"
target triple = "x86_64-pc-linux-gnu"

%struct._zend_ptr_stack = type { i32, i32, ptr, ptr, i8 }

; Function Attrs: nounwind uwtable
define void @zend_ptr_stack_destroy(ptr noundef %0) #0 {
  %2 = alloca ptr, align 8
  store ptr %0, ptr %2, align 8
  %3 = load ptr, ptr %2, align 8
  %4 = getelementptr inbounds %struct._zend_ptr_stack, ptr %3, i32 0, i32 2
  %5 = load ptr, ptr %4, align 8
  %6 = icmp ne ptr %5, null
  br i1 %6, label %7, label %21

7:                                                ; preds = %1
  %8 = load ptr, ptr %2, align 8
  %9 = getelementptr inbounds %struct._zend_ptr_stack, ptr %8, i32 0, i32 4
  %10 = load i8, ptr %9, align 8
  %11 = trunc i8 %10 to i1
  br i1 %11, label %12, label %16

12:                                               ; preds = %7
  %13 = load ptr, ptr %2, align 8
  %14 = getelementptr inbounds %struct._zend_ptr_stack, ptr %13, i32 0, i32 2
  %15 = load ptr, ptr %14, align 8
  call void @free(ptr noundef %15) #4
  br label %20

16:                                               ; preds = %7
  %17 = load ptr, ptr %2, align 8
  %18 = getelementptr inbounds %struct._zend_ptr_stack, ptr %17, i32 0, i32 2
  %19 = load ptr, ptr %18, align 8
  call void @_efree(ptr noundef %19)
  br label %20

20:                                               ; preds = %16, %12
  br label %21

21:                                               ; preds = %20, %1
  ret void
}