; Function Attrs: nounwind uwtable
define void @zend_ptr_stack_destroy(ptr nocapture noundef readonly %0) local_unnamed_addr #1 {
  %2 = getelementptr inbounds i8, ptr %0, i64 8
  %3 = load ptr, ptr %2, align 8
  %.not = icmp eq ptr %3, null
  br i1 %.not, label %10, label %4

4:                                                ; preds = %1
  %5 = getelementptr inbounds i8, ptr %0, i64 24
  %6 = load i8, ptr %5, align 8
  %7 = and i8 %6, 1
  %.not4 = icmp eq i8 %7, 0
  br i1 %.not4, label %9, label %8

8:                                                ; preds = %4
  tail call void @free(ptr noundef nonnull %3) #9
  br label %10

9:                                                ; preds = %4
  tail call void @_efree(ptr noundef nonnull %3) #9
  br label %10

10:                                               ; preds = %8, %9, %1
  ret void
}